target datalayout = "e-m:e-p270:32:32-p271:32:32-p272:64:64-i64:64-i128:128-f80:128-n8:16:32:64-S128"
target triple = "x86_64-pc-linux-gnu"

%struct.lexbor_shs_entry_t = type { ptr, ptr, i64, i64 }
%struct.lxb_tag_data_t = type { %struct.lexbor_hash_entry, i64, i64, i8 }
%struct.lexbor_hash_entry = type { %union.anon, i64, ptr }
%union.anon = type { ptr, [16 x i8] }

@lexbor_hash_search_lower = external global ptr, align 8

; Function Attrs: nounwind uwtable
define hidden ptr @lxb_tag_data_by_name(ptr noundef %0, ptr noundef %1, i64 noundef %2) #0 {
  %4 = alloca ptr, align 8
  %5 = alloca ptr, align 8
  %6 = alloca ptr, align 8
  %7 = alloca i64, align 8
  %8 = alloca ptr, align 8
  store ptr %0, ptr %5, align 8
  store ptr %1, ptr %6, align 8
  store i64 %2, ptr %7, align 8
  %9 = load ptr, ptr %6, align 8
  %10 = icmp eq ptr %9, null
  br i1 %10, label %14, label %11

11:                                               ; preds = %3
  %12 = load i64, ptr %7, align 8
  %13 = icmp eq i64 %12, 0
  br i1 %13, label %14, label %15

14:                                               ; preds = %11, %3
  store ptr null, ptr %4, align 8
  br label %31

15:                                               ; preds = %11
  %16 = load ptr, ptr %6, align 8
  %17 = load i64, ptr %7, align 8
  %18 = call ptr @lexbor_shs_entry_get_lower_static(ptr noundef @lxb_tag_res_shs_data_default, ptr noundef %16, i64 noundef %17)
  store ptr %18, ptr %8, align 8
  %19 = load ptr, ptr %8, align 8
  %20 = icmp ne ptr %19, null
  br i1 %20, label %21, label %25

21:                                               ; preds = %15
  %22 = load ptr, ptr %8, align 8
  %23 = getelementptr inbounds %struct.lexbor_shs_entry_t, ptr %22, i32 0, i32 1
  %24 = load ptr, ptr %23, align 8
  store ptr %24, ptr %4, align 8
  br label %31

25:                                               ; preds = %15
  %26 = load ptr, ptr %5, align 8
  %27 = load ptr, ptr @lexbor_hash_search_lower, align 8
  %28 = load ptr, ptr %6, align 8
  %29 = load i64, ptr %7, align 8
  %30 = call ptr @lexbor_hash_search(ptr noundef %26, ptr noundef %27, ptr noundef %28, i64 noundef %29)
  store ptr %30, ptr %4, align 8
  br label %31

31:                                               ; preds = %25, %21, %14
  %32 = load ptr, ptr %4, align 8
  ret ptr %32
}

; Function Attrs: nounwind uwtable
define internal i64 @lxb_tag_id_by_name(ptr noundef %0, ptr noundef %1, i64 noundef %2) #0 {
  %4 = alloca i64, align 8
  %5 = alloca ptr, align 8
  %6 = alloca ptr, align 8
  %7 = alloca i64, align 8
  %8 = alloca ptr, align 8
  store ptr %0, ptr %5, align 8
  store ptr %1, ptr %6, align 8
  store i64 %2, ptr %7, align 8
  %9 = load ptr, ptr %5, align 8
  %10 = load ptr, ptr %6, align 8
  %11 = load i64, ptr %7, align 8
  %12 = call ptr @lxb_tag_data_by_name(ptr noundef %9, ptr noundef %10, i64 noundef %11)
  store ptr %12, ptr %8, align 8
  %13 = load ptr, ptr %8, align 8
  %14 = icmp eq ptr %13, null
  br i1 %14, label %15, label %16

15:                                               ; preds = %3
  store i64 0, ptr %4, align 8
  br label %20

16:                                               ; preds = %3
  %17 = load ptr, ptr %8, align 8
  %18 = getelementptr inbounds %struct.lxb_tag_data_t, ptr %17, i32 0, i32 1
  %19 = load i64, ptr %18, align 8
  store i64 %19, ptr %4, align 8
  br label %20

20:                                               ; preds = %16, %15
  %21 = load i64, ptr %4, align 8
  ret i64 %21
}

; Function Attrs: nounwind uwtable
define hidden i64 @lxb_tag_id_by_name_noi(ptr noundef %0, ptr noundef %1, i64 noundef %2) #0 {
  %4 = alloca ptr, align 8
  %5 = alloca ptr, align 8
  %6 = alloca i64, align 8
  store ptr %0, ptr %4, align 8
  store ptr %1, ptr %5, align 8
  store i64 %2, ptr %6, align 8
  %7 = load ptr, ptr %4, align 8
  %8 = load ptr, ptr %5, align 8
  %9 = load i64, ptr %6, align 8
  %10 = call i64 @lxb_tag_id_by_name(ptr noundef %7, ptr noundef %8, i64 noundef %9)
  ret i64 %10
}