; Function Attrs: nounwind uwtable
define hidden i64 @lxb_tag_id_by_name_noi(ptr noundef %0, ptr noundef %1, i64 noundef %2) local_unnamed_addr #0 {
  %4 = icmp eq ptr %1, null
  %5 = icmp eq i64 %2, 0
  %or.cond.i.i = or i1 %4, %5
  br i1 %or.cond.i.i, label %lxb_tag_id_by_name.exit, label %6

6:                                                ; preds = %3
  %7 = tail call ptr @lexbor_shs_entry_get_lower_static(ptr noundef nonnull @lxb_tag_res_shs_data_default, ptr noundef nonnull %1, i64 noundef %2) #5
  %.not.i.i = icmp eq ptr %7, null
  br i1 %.not.i.i, label %11, label %8

8:                                                ; preds = %6
  %9 = getelementptr inbounds i8, ptr %7, i64 8
  %10 = load ptr, ptr %9, align 8
  br label %lxb_tag_data_by_name.exit.i

11:                                               ; preds = %6
  %12 = load ptr, ptr @lexbor_hash_search_lower, align 8
  %13 = tail call ptr @lexbor_hash_search(ptr noundef %0, ptr noundef %12, ptr noundef nonnull %1, i64 noundef %2) #5
  br label %lxb_tag_data_by_name.exit.i

lxb_tag_data_by_name.exit.i:                      ; preds = %11, %8
  %.0.i.i = phi ptr [ %10, %8 ], [ %13, %11 ]
  %14 = icmp eq ptr %.0.i.i, null
  br i1 %14, label %lxb_tag_id_by_name.exit, label %15

15:                                               ; preds = %lxb_tag_data_by_name.exit.i
  %16 = getelementptr inbounds i8, ptr %.0.i.i, i64 40
  %17 = load i64, ptr %16, align 8
  br label %lxb_tag_id_by_name.exit

lxb_tag_id_by_name.exit:                          ; preds = %3, %lxb_tag_data_by_name.exit.i, %15
  %.0.i = phi i64 [ %17, %15 ], [ 0, %lxb_tag_data_by_name.exit.i ], [ 0, %3 ]
  ret i64 %.0.i
}